Certificate:
    Data:
        Version: 3 (0x2)
        Serial Number: 305419899 (0x1234567b)
        Signature Algorithm: ecdsa-with-SHA384
        Issuer: CN=CA1_sha384_secp384r1_v3_ca
        Validity
            Not Before: Oct 31 11:05:08 2022 GMT
            Not After : Oct 30 11:05:08 2027 GMT
        Subject: CN=SRK4_sha384_secp384r1_v3_usr
        Subject Public Key Info:
            Public Key Algorithm: id-ecPublicKey
                Public-Key: (384 bit)
                pub:
                    04:64:74:2e:7a:d3:b3:d3:87:47:62:50:09:48:15:
                    5f:d2:de:ac:61:7b:f3:2d:c1:d2:38:21:7b:54:15:
                    f9:94:98:de:22:a1:fc:f2:6a:a5:30:e1:dc:eb:f3:
                    0d:2e:c6:20:e6:bb:4e:cd:6b:26:40:cd:81:b5:a6:
                    e3:d6:5d:6b:86:0b:01:8e:40:a5:b6:d5:57:15:75:
                    f4:ef:4d:d7:0b:57:f4:09:d4:73:ed:83:63:31:9b:
                    82:12:4c:68:b0:bf:5c
                ASN1 OID: secp384r1
                NIST CURVE: P-384
        X509v3 extensions:
            X509v3 Basic Constraints: 
                CA:FALSE
            Netscape Comment: 
                OpenSSL Generated Certificate
            X509v3 Subject Key Identifier: 
                0D:51:0D:B3:05:E8:8C:E9:00:EA:B0:40:92:D1:CF:4C:64:D3:8F:76
            X509v3 Authority Key Identifier: 
                keyid:44:04:3C:74:60:8E:C3:10:DA:9B:77:CD:75:42:A5:8C:52:74:94:89

    Signature Algorithm: ecdsa-with-SHA384
         30:66:02:31:00:e1:22:27:3c:74:0a:ac:f5:c7:d0:40:14:96:
         9f:4e:6a:18:1d:15:41:8f:7b:da:2b:88:70:6a:69:da:6f:9b:
         8e:99:3f:eb:5d:67:a6:3a:ed:93:5a:a6:d8:82:09:d4:33:02:
         31:00:a2:d9:83:75:f1:cf:54:af:04:06:d6:72:fd:f2:c2:82:
         81:da:02:c5:33:31:3d:a2:46:6d:8c:4b:f6:9f:b4:05:9d:72:
         b9:a1:63:85:f2:41:4d:9e:d1:28:40:49:10:fd
-----BEGIN CERTIFICATE-----
MIIB9zCCAXygAwIBAgIEEjRWezAKBggqhkjOPQQDAzAlMSMwIQYDVQQDFBpDQTFf
c2hhMzg0X3NlY3AzODRyMV92M19jYTAeFw0yMjEwMzExMTA1MDhaFw0yNzEwMzAx
MTA1MDhaMCcxJTAjBgNVBAMMHFNSSzRfc2hhMzg0X3NlY3AzODRyMV92M191c3Iw
djAQBgcqhkjOPQIBBgUrgQQAIgNiAARkdC5607PTh0diUAlIFV/S3qxhe/MtwdI4
IXtUFfmUmN4iofzyaqUw4dzr8w0uxiDmu07NayZAzYG1puPWXWuGCwGOQKW21VcV
dfTvTdcLV/QJ1HPtg2Mxm4ISTGiwv1yjezB5MAkGA1UdEwQCMAAwLAYJYIZIAYb4
QgENBB8WHU9wZW5TU0wgR2VuZXJhdGVkIENlcnRpZmljYXRlMB0GA1UdDgQWBBQN
UQ2zBeiM6QDqsECS0c9MZNOPdjAfBgNVHSMEGDAWgBREBDx0YI7DENqbd811QqWM
UnSUiTAKBggqhkjOPQQDAwNpADBmAjEA4SInPHQKrPXH0EAUlp9OahgdFUGPe9or
iHBqadpvm46ZP+tdZ6Y67ZNaptiCCdQzAjEAotmDdfHPVK8EBtZy/fLCgoHaAsUz
MT2iRm2MS/aftAWdcrmhY4XyQU2e0ShASRD9
-----END CERTIFICATE-----
