Certificate:
    Data:
        Version: 3 (0x2)
        Serial Number: 305419898 (0x1234567a)
        Signature Algorithm: ecdsa-with-SHA384
        Issuer: CN=CA1_sha384_secp384r1_v3_ca
        Validity
            Not Before: Oct 31 11:05:08 2022 GMT
            Not After : Oct 30 11:05:08 2027 GMT
        Subject: CN=SRK3_sha384_secp384r1_v3_usr
        Subject Public Key Info:
            Public Key Algorithm: id-ecPublicKey
                Public-Key: (384 bit)
                pub:
                    04:fc:e3:53:6e:56:b0:fe:fd:a2:00:98:50:b2:3b:
                    03:9f:e3:58:f1:94:82:cf:8f:13:eb:3f:1d:28:66:
                    5a:d4:fd:3b:1a:e9:87:2e:1e:8f:fe:db:dc:11:c8:
                    d8:4a:e9:26:fa:08:b4:0b:c6:f5:dc:06:e6:16:0f:
                    02:a3:25:15:e5:33:60:0a:c3:1b:89:76:ed:15:4a:
                    00:0f:76:ec:b8:71:87:c7:47:1c:93:ba:80:05:ae:
                    ba:33:b3:87:69:db:a0
                ASN1 OID: secp384r1
                NIST CURVE: P-384
        X509v3 extensions:
            X509v3 Basic Constraints: 
                CA:FALSE
            Netscape Comment: 
                OpenSSL Generated Certificate
            X509v3 Subject Key Identifier: 
                4C:EA:5D:24:C6:20:C4:04:8C:F3:7F:B5:D2:85:13:AA:D5:0E:7E:1B
            X509v3 Authority Key Identifier: 
                keyid:44:04:3C:74:60:8E:C3:10:DA:9B:77:CD:75:42:A5:8C:52:74:94:89

    Signature Algorithm: ecdsa-with-SHA384
         30:66:02:31:00:a2:72:0e:1a:25:34:7d:ca:24:93:30:ac:8d:
         b2:3c:89:f6:7a:ba:d0:d7:e9:26:b9:85:f2:32:e6:68:6b:9d:
         88:40:aa:fb:21:3d:e3:1f:fe:57:bd:0c:1e:20:dd:9a:9e:02:
         31:00:9f:29:0f:bb:40:e5:75:a7:e5:ff:da:80:43:d5:4f:16:
         fa:b0:d7:3f:6e:55:5a:58:f1:da:40:79:08:b7:a7:9f:b1:ff:
         5e:35:d0:bf:f7:5d:22:ff:a0:db:c3:3a:ad:eb
-----BEGIN CERTIFICATE-----
MIIB9zCCAXygAwIBAgIEEjRWejAKBggqhkjOPQQDAzAlMSMwIQYDVQQDFBpDQTFf
c2hhMzg0X3NlY3AzODRyMV92M19jYTAeFw0yMjEwMzExMTA1MDhaFw0yNzEwMzAx
MTA1MDhaMCcxJTAjBgNVBAMMHFNSSzNfc2hhMzg0X3NlY3AzODRyMV92M191c3Iw
djAQBgcqhkjOPQIBBgUrgQQAIgNiAAT841NuVrD+/aIAmFCyOwOf41jxlILPjxPr
Px0oZlrU/Tsa6YcuHo/+29wRyNhK6Sb6CLQLxvXcBuYWDwKjJRXlM2AKwxuJdu0V
SgAPduy4cYfHRxyTuoAFrrozs4dp26CjezB5MAkGA1UdEwQCMAAwLAYJYIZIAYb4
QgENBB8WHU9wZW5TU0wgR2VuZXJhdGVkIENlcnRpZmljYXRlMB0GA1UdDgQWBBRM
6l0kxiDEBIzzf7XShROq1Q5+GzAfBgNVHSMEGDAWgBREBDx0YI7DENqbd811QqWM
UnSUiTAKBggqhkjOPQQDAwNpADBmAjEAonIOGiU0fcokkzCsjbI8ifZ6utDX6Sa5
hfIy5mhrnYhAqvshPeMf/le9DB4g3ZqeAjEAnykPu0Dldafl/9qAQ9VPFvqw1z9u
VVpY8dpAeQi3p5+x/1410L/3XSL/oNvDOq3r
-----END CERTIFICATE-----
