Certificate:
    Data:
        Version: 3 (0x2)
        Serial Number: 305419896 (0x12345678)
        Signature Algorithm: ecdsa-with-SHA384
        Issuer: CN=CA1_sha384_secp384r1_v3_ca
        Validity
            Not Before: Oct 31 11:05:08 2022 GMT
            Not After : Oct 30 11:05:08 2027 GMT
        Subject: CN=SRK1_sha384_secp384r1_v3_usr
        Subject Public Key Info:
            Public Key Algorithm: id-ecPublicKey
                Public-Key: (384 bit)
                pub:
                    04:ad:8d:f2:1d:35:f7:e2:ea:28:72:65:e3:e4:bc:
                    9f:5f:8a:c5:0a:9c:12:9f:14:60:4a:38:cb:23:36:
                    9c:cd:07:4b:fd:73:bf:42:f5:b2:95:80:19:54:d9:
                    15:21:2b:b4:3b:04:55:07:98:f5:68:44:27:0c:dd:
                    2e:31:81:2c:d2:33:5f:ad:b5:d0:05:3c:2b:f9:75:
                    ea:63:09:71:63:98:a3:ce:2b:f9:cc:be:1a:df:31:
                    5b:93:b2:bc:18:17:5a
                ASN1 OID: secp384r1
                NIST CURVE: P-384
        X509v3 extensions:
            X509v3 Basic Constraints: 
                CA:FALSE
            Netscape Comment: 
                OpenSSL Generated Certificate
            X509v3 Subject Key Identifier: 
                55:9A:94:57:B9:81:C5:BD:05:56:66:80:04:FD:B4:EB:92:7C:78:13
            X509v3 Authority Key Identifier: 
                keyid:44:04:3C:74:60:8E:C3:10:DA:9B:77:CD:75:42:A5:8C:52:74:94:89

    Signature Algorithm: ecdsa-with-SHA384
         30:66:02:31:00:e1:d4:b7:5a:96:ea:1f:d0:9e:13:f2:5e:bb:
         64:8f:d2:8e:20:14:be:13:a3:f7:94:03:15:58:5b:c7:81:57:
         0a:fb:84:8b:ea:bb:85:18:3f:ea:d5:74:2e:3c:21:6c:a6:02:
         31:00:99:30:45:86:43:57:66:35:dd:90:05:e7:52:6d:58:95:
         d9:0a:bf:8e:b1:62:48:22:07:ed:15:54:b7:3d:51:ec:e0:72:
         fe:f5:96:6c:4d:3d:a0:e5:28:a1:58:63:03:21
-----BEGIN CERTIFICATE-----
MIIB9zCCAXygAwIBAgIEEjRWeDAKBggqhkjOPQQDAzAlMSMwIQYDVQQDFBpDQTFf
c2hhMzg0X3NlY3AzODRyMV92M19jYTAeFw0yMjEwMzExMTA1MDhaFw0yNzEwMzAx
MTA1MDhaMCcxJTAjBgNVBAMMHFNSSzFfc2hhMzg0X3NlY3AzODRyMV92M191c3Iw
djAQBgcqhkjOPQIBBgUrgQQAIgNiAAStjfIdNffi6ihyZePkvJ9fisUKnBKfFGBK
OMsjNpzNB0v9c79C9bKVgBlU2RUhK7Q7BFUHmPVoRCcM3S4xgSzSM1+ttdAFPCv5
depjCXFjmKPOK/nMvhrfMVuTsrwYF1qjezB5MAkGA1UdEwQCMAAwLAYJYIZIAYb4
QgENBB8WHU9wZW5TU0wgR2VuZXJhdGVkIENlcnRpZmljYXRlMB0GA1UdDgQWBBRV
mpRXuYHFvQVWZoAE/bTrknx4EzAfBgNVHSMEGDAWgBREBDx0YI7DENqbd811QqWM
UnSUiTAKBggqhkjOPQQDAwNpADBmAjEA4dS3WpbqH9CeE/Jeu2SP0o4gFL4To/eU
AxVYW8eBVwr7hIvqu4UYP+rVdC48IWymAjEAmTBFhkNXZjXdkAXnUm1YldkKv46x
YkgiB+0VVLc9Uezgcv71lmxNPaDlKKFYYwMh
-----END CERTIFICATE-----
