Certificate:
    Data:
        Version: 3 (0x2)
        Serial Number: 305419897 (0x12345679)
        Signature Algorithm: ecdsa-with-SHA384
        Issuer: CN=CA1_sha384_secp384r1_v3_ca
        Validity
            Not Before: Oct 31 11:05:08 2022 GMT
            Not After : Oct 30 11:05:08 2027 GMT
        Subject: CN=SRK2_sha384_secp384r1_v3_usr
        Subject Public Key Info:
            Public Key Algorithm: id-ecPublicKey
                Public-Key: (384 bit)
                pub:
                    04:9f:cf:ac:a0:cf:e6:6f:47:8b:b7:a2:ee:f7:58:
                    13:6f:54:4e:a2:6b:1f:ab:6a:0a:dd:a0:41:d8:7d:
                    67:2b:7f:a6:d8:bb:5d:36:cc:ac:4c:75:03:87:1f:
                    90:f2:d4:5f:b6:69:23:5a:6f:61:2e:df:5e:44:b7:
                    d4:56:81:a7:ee:20:23:5c:3d:b0:03:bc:b1:52:e0:
                    64:8c:43:3e:f2:85:97:6d:b5:b6:e9:1e:bf:f8:90:
                    d2:27:ed:d8:cf:2a:c2
                ASN1 OID: secp384r1
                NIST CURVE: P-384
        X509v3 extensions:
            X509v3 Basic Constraints: 
                CA:FALSE
            Netscape Comment: 
                OpenSSL Generated Certificate
            X509v3 Subject Key Identifier: 
                2C:8F:0F:CB:74:06:2F:21:05:88:2E:D2:49:49:F0:59:EC:AE:1A:43
            X509v3 Authority Key Identifier: 
                keyid:44:04:3C:74:60:8E:C3:10:DA:9B:77:CD:75:42:A5:8C:52:74:94:89

    Signature Algorithm: ecdsa-with-SHA384
         30:65:02:31:00:97:14:25:fa:c9:ed:f0:7c:85:b1:41:88:a0:
         d2:2e:97:80:ae:34:e2:7f:c7:a1:a3:98:44:70:b7:0d:20:15:
         08:a5:66:3d:67:b0:f1:3d:65:ca:87:33:de:b8:3f:6d:b2:02:
         30:2a:7a:99:76:a7:87:8e:67:ef:7b:78:52:6b:aa:41:14:1b:
         95:78:76:6f:21:61:62:44:51:f0:15:02:9b:2e:65:e4:e7:57:
         bb:d6:51:ab:7b:2f:f5:53:ca:da:a1:12:c5
-----BEGIN CERTIFICATE-----
MIIB9jCCAXygAwIBAgIEEjRWeTAKBggqhkjOPQQDAzAlMSMwIQYDVQQDFBpDQTFf
c2hhMzg0X3NlY3AzODRyMV92M19jYTAeFw0yMjEwMzExMTA1MDhaFw0yNzEwMzAx
MTA1MDhaMCcxJTAjBgNVBAMMHFNSSzJfc2hhMzg0X3NlY3AzODRyMV92M191c3Iw
djAQBgcqhkjOPQIBBgUrgQQAIgNiAASfz6ygz+ZvR4u3ou73WBNvVE6iax+ragrd
oEHYfWcrf6bYu102zKxMdQOHH5Dy1F+2aSNab2Eu315Et9RWgafuICNcPbADvLFS
4GSMQz7yhZdttbbpHr/4kNIn7djPKsKjezB5MAkGA1UdEwQCMAAwLAYJYIZIAYb4
QgENBB8WHU9wZW5TU0wgR2VuZXJhdGVkIENlcnRpZmljYXRlMB0GA1UdDgQWBBQs
jw/LdAYvIQWILtJJSfBZ7K4aQzAfBgNVHSMEGDAWgBREBDx0YI7DENqbd811QqWM
UnSUiTAKBggqhkjOPQQDAwNoADBlAjEAlxQl+snt8HyFsUGIoNIul4CuNOJ/x6Gj
mERwtw0gFQilZj1nsPE9ZcqHM964P22yAjAqepl2p4eOZ+97eFJrqkEUG5V4dm8h
YWJEUfAVApsuZeTnV7vWUat7L/VTytqhEsU=
-----END CERTIFICATE-----
